target datalayout = "e-m:e-p270:32:32-p271:32:32-p272:64:64-i64:64-i128:128-f80:128-n8:16:32:64-S128"
target triple = "x86_64-pc-linux-gnu"

%struct.TclStubs = type { i32, ptr, ptr, ptr, ptr, ptr, ptr, ptr, ptr, ptr, ptr, ptr, ptr, ptr, ptr, ptr, ptr, ptr, ptr, ptr, ptr, ptr, ptr, ptr, ptr, ptr, ptr, ptr, ptr, ptr, ptr, ptr, ptr, ptr, ptr, ptr, ptr, ptr, ptr, ptr, ptr, ptr, ptr, ptr, ptr, ptr, ptr, ptr, ptr, ptr, ptr, ptr, ptr, ptr, ptr, ptr, ptr, ptr, ptr, ptr, ptr, ptr, ptr, ptr, ptr, ptr, ptr, ptr, ptr, ptr, ptr, ptr, ptr, ptr, ptr, ptr, ptr, ptr, ptr, ptr, ptr, ptr, ptr, ptr, ptr, ptr, ptr, ptr, ptr, ptr, ptr, ptr, ptr, ptr, ptr, ptr, ptr, ptr, ptr, ptr, ptr, ptr, ptr, ptr, ptr, ptr, ptr, ptr, ptr, ptr, ptr, ptr, ptr, ptr, ptr, ptr, ptr, ptr, ptr, ptr, ptr, ptr, ptr, ptr, ptr, ptr, ptr, ptr, ptr, ptr, ptr, ptr, ptr, ptr, ptr, ptr, ptr, ptr, ptr, ptr, ptr, ptr, ptr, ptr, ptr, ptr, ptr, ptr, ptr, ptr, ptr, ptr, ptr, ptr, ptr, ptr, ptr, ptr, ptr, ptr, ptr, ptr, ptr, ptr, ptr, ptr, ptr, ptr, ptr, ptr, ptr, ptr, ptr, ptr, ptr, ptr, ptr, ptr, ptr, ptr, ptr, ptr, ptr, ptr, ptr, ptr, ptr, ptr, ptr, ptr, ptr, ptr, ptr, ptr, ptr, ptr, ptr, ptr, ptr, ptr, ptr, ptr, ptr, ptr, ptr, ptr, ptr, ptr, ptr, ptr, ptr, ptr, ptr, ptr, ptr, ptr, ptr, ptr, ptr, ptr, ptr, ptr, ptr, ptr, ptr, ptr, ptr, ptr, ptr, ptr, ptr, ptr, ptr, ptr, ptr, ptr, ptr, ptr, ptr, ptr, ptr, ptr, ptr, ptr, ptr, ptr, ptr, ptr, ptr, ptr, ptr, ptr, ptr, ptr, ptr, ptr, ptr, ptr, ptr, ptr, ptr, ptr, ptr, ptr, ptr, ptr, ptr, ptr, ptr, ptr, ptr, ptr, ptr, ptr, ptr, ptr, ptr, ptr, ptr, ptr, ptr, ptr, ptr, ptr, ptr, ptr, ptr, ptr, ptr, ptr, ptr, ptr, ptr, ptr, ptr, ptr, ptr, ptr, ptr, ptr, ptr, ptr, ptr, ptr, ptr, ptr, ptr, ptr, ptr, ptr, ptr, ptr, ptr, ptr, ptr, ptr, ptr, ptr, ptr, ptr, ptr, ptr, ptr, ptr, ptr, ptr, ptr, ptr, ptr, ptr, ptr, ptr, ptr, ptr, ptr, ptr, ptr, ptr, ptr, ptr, ptr, ptr, ptr, ptr, ptr, ptr, ptr, ptr, ptr, ptr, ptr, ptr, ptr, ptr, ptr, ptr, ptr, ptr, ptr, ptr, ptr, ptr, ptr, ptr, ptr, ptr, ptr, ptr, ptr, ptr, ptr, ptr, ptr, ptr, ptr, ptr, ptr, ptr, ptr, ptr, ptr, ptr, ptr, ptr, ptr, ptr, ptr, ptr, ptr, ptr, ptr, ptr, ptr, ptr, ptr, ptr, ptr, ptr, ptr, ptr, ptr, ptr, ptr, ptr, ptr, ptr, ptr, ptr, ptr, ptr, ptr, ptr, ptr, ptr, ptr, ptr, ptr, ptr, ptr, ptr, ptr, ptr, ptr, ptr, ptr, ptr, ptr, ptr, ptr, ptr, ptr, ptr, ptr, ptr, ptr, ptr, ptr, ptr, ptr, ptr, ptr, ptr, ptr, ptr, ptr, ptr, ptr, ptr, ptr, ptr, ptr, ptr, ptr, ptr, ptr, ptr, ptr, ptr, ptr, ptr, ptr, ptr, ptr, ptr, ptr, ptr, ptr, ptr, ptr, ptr, ptr, ptr, ptr, ptr, ptr, ptr, ptr, ptr, ptr, ptr, ptr, ptr, ptr, ptr, ptr, ptr, ptr, ptr, ptr, ptr, ptr, ptr, ptr, ptr, ptr, ptr, ptr, ptr, ptr, ptr, ptr, ptr, ptr, ptr, ptr, ptr, ptr, ptr, ptr, ptr, ptr, ptr, ptr, ptr, ptr, ptr, ptr, ptr, ptr, ptr, ptr, ptr, ptr, ptr, ptr, ptr, ptr, ptr, ptr, ptr, ptr, ptr, ptr, ptr, ptr, ptr, ptr, ptr, ptr, ptr, ptr, ptr, ptr, ptr, ptr, ptr, ptr, ptr, ptr, ptr, ptr, ptr, ptr, ptr, ptr, ptr, ptr, ptr, ptr, ptr, ptr, ptr, ptr, ptr, ptr, ptr, ptr, ptr, ptr, ptr, ptr, ptr, ptr, ptr, ptr, ptr, ptr, ptr, ptr, ptr, ptr, ptr, ptr, ptr, ptr, ptr, ptr, ptr, ptr, ptr, ptr, ptr, ptr, ptr, ptr, ptr, ptr, ptr, ptr, ptr, ptr, ptr, ptr, ptr, ptr, ptr, ptr, ptr, ptr, ptr, ptr, ptr, ptr, ptr, ptr, ptr, ptr, ptr, ptr, ptr, ptr, ptr, ptr, ptr, ptr, ptr, ptr, ptr, ptr, ptr, ptr, ptr, ptr, ptr, ptr, ptr, ptr, ptr, ptr, ptr, ptr, ptr, ptr, ptr, ptr, ptr, ptr, ptr, ptr, ptr, ptr, ptr, ptr, ptr, ptr, ptr, ptr, ptr, ptr, ptr, ptr, ptr, ptr }
%struct.SqlCollate = type { ptr, ptr, ptr }
%struct.Tcl_Obj = type { i32, ptr, i32, ptr, %union.anon }
%union.anon = type { %struct.anon }
%struct.anon = type { ptr, ptr }

@tclStubsPtr = external global ptr, align 8

; Function Attrs: inlinehint nounwind willreturn memory(read) uwtable
define available_externally i32 @atoi(ptr noundef nonnull %0) #8 {
  %2 = alloca ptr, align 8
  store ptr %0, ptr %2, align 8, !tbaa !18
  %3 = load ptr, ptr %2, align 8, !tbaa !18
  %4 = call i64 @strtol(ptr noundef %3, ptr noundef null, i32 noundef 10) #10
  %5 = trunc i64 %4 to i32
  ret i32 %5
}

; Function Attrs: nounwind uwtable
define internal i32 @tclSqlCollate(ptr noundef %0, i32 noundef %1, ptr noundef %2, i32 noundef %3, ptr noundef %4) #0 {
  %6 = alloca ptr, align 8
  %7 = alloca i32, align 4
  %8 = alloca ptr, align 8
  %9 = alloca i32, align 4
  %10 = alloca ptr, align 8
  %11 = alloca ptr, align 8
  %12 = alloca ptr, align 8
  %13 = alloca ptr, align 8
  store ptr %0, ptr %6, align 8, !tbaa !15
  store i32 %1, ptr %7, align 4, !tbaa !8
  store ptr %2, ptr %8, align 8, !tbaa !15
  store i32 %3, ptr %9, align 4, !tbaa !8
  store ptr %4, ptr %10, align 8, !tbaa !15
  call void @llvm.lifetime.start.p0(i64 8, ptr %11) #10
  %14 = load ptr, ptr %6, align 8, !tbaa !15
  store ptr %14, ptr %11, align 8, !tbaa !63
  call void @llvm.lifetime.start.p0(i64 8, ptr %12) #10
  %15 = load ptr, ptr @tclStubsPtr, align 8, !tbaa !10
  %16 = getelementptr inbounds nuw %struct.TclStubs, ptr %15, i32 0, i32 58
  %17 = load ptr, ptr %16, align 8, !tbaa !81
  %18 = load ptr, ptr %11, align 8, !tbaa !63
  %19 = getelementptr inbounds nuw %struct.SqlCollate, ptr %18, i32 0, i32 1
  %20 = load ptr, ptr %19, align 8, !tbaa !68
  %21 = call ptr %17(ptr noundef %20, i32 noundef -1)
  store ptr %21, ptr %12, align 8, !tbaa !21
  %22 = load ptr, ptr %12, align 8, !tbaa !21
  %23 = getelementptr inbounds nuw %struct.Tcl_Obj, ptr %22, i32 0, i32 0
  %24 = load i32, ptr %23, align 8, !tbaa !70
  %25 = add nsw i32 %24, 1
  store i32 %25, ptr %23, align 8, !tbaa !70
  %26 = load ptr, ptr @tclStubsPtr, align 8, !tbaa !10
  %27 = getelementptr inbounds nuw %struct.TclStubs, ptr %26, i32 0, i32 46
  %28 = load ptr, ptr %27, align 8, !tbaa !80
  %29 = load ptr, ptr %11, align 8, !tbaa !63
  %30 = getelementptr inbounds nuw %struct.SqlCollate, ptr %29, i32 0, i32 0
  %31 = load ptr, ptr %30, align 8, !tbaa !64
  %32 = load ptr, ptr %12, align 8, !tbaa !21
  %33 = load ptr, ptr @tclStubsPtr, align 8, !tbaa !10
  %34 = getelementptr inbounds nuw %struct.TclStubs, ptr %33, i32 0, i32 58
  %35 = load ptr, ptr %34, align 8, !tbaa !81
  %36 = load ptr, ptr %8, align 8, !tbaa !15
  %37 = load i32, ptr %7, align 4, !tbaa !8
  %38 = call ptr %35(ptr noundef %36, i32 noundef %37)
  %39 = call i32 %28(ptr noundef %31, ptr noundef %32, ptr noundef %38)
  %40 = load ptr, ptr @tclStubsPtr, align 8, !tbaa !10
  %41 = getelementptr inbounds nuw %struct.TclStubs, ptr %40, i32 0, i32 46
  %42 = load ptr, ptr %41, align 8, !tbaa !80
  %43 = load ptr, ptr %11, align 8, !tbaa !63
  %44 = getelementptr inbounds nuw %struct.SqlCollate, ptr %43, i32 0, i32 0
  %45 = load ptr, ptr %44, align 8, !tbaa !64
  %46 = load ptr, ptr %12, align 8, !tbaa !21
  %47 = load ptr, ptr @tclStubsPtr, align 8, !tbaa !10
  %48 = getelementptr inbounds nuw %struct.TclStubs, ptr %47, i32 0, i32 58
  %49 = load ptr, ptr %48, align 8, !tbaa !81
  %50 = load ptr, ptr %10, align 8, !tbaa !15
  %51 = load i32, ptr %9, align 4, !tbaa !8
  %52 = call ptr %49(ptr noundef %50, i32 noundef %51)
  %53 = call i32 %42(ptr noundef %45, ptr noundef %46, ptr noundef %52)
  %54 = load ptr, ptr @tclStubsPtr, align 8, !tbaa !10
  %55 = getelementptr inbounds nuw %struct.TclStubs, ptr %54, i32 0, i32 295
  %56 = load ptr, ptr %55, align 8, !tbaa !133
  %57 = load ptr, ptr %11, align 8, !tbaa !63
  %58 = getelementptr inbounds nuw %struct.SqlCollate, ptr %57, i32 0, i32 0
  %59 = load ptr, ptr %58, align 8, !tbaa !64
  %60 = load ptr, ptr %12, align 8, !tbaa !21
  %61 = call i32 %56(ptr noundef %59, ptr noundef %60, i32 noundef 262144)
  br label %62

62:                                               ; preds = %5
  call void @llvm.lifetime.start.p0(i64 8, ptr %13) #10
  %63 = load ptr, ptr %12, align 8, !tbaa !21
  store ptr %63, ptr %13, align 8, !tbaa !21
  %64 = load ptr, ptr %13, align 8, !tbaa !21
  %65 = getelementptr inbounds nuw %struct.Tcl_Obj, ptr %64, i32 0, i32 0
  %66 = load i32, ptr %65, align 8, !tbaa !70
  %67 = add nsw i32 %66, -1
  store i32 %67, ptr %65, align 8, !tbaa !70
  %68 = icmp sle i32 %66, 1
  br i1 %68, label %69, label %74

69:                                               ; preds = %62
  %70 = load ptr, ptr @tclStubsPtr, align 8, !tbaa !10
  %71 = getelementptr inbounds nuw %struct.TclStubs, ptr %70, i32 0, i32 32
  %72 = load ptr, ptr %71, align 8, !tbaa !73
  %73 = load ptr, ptr %13, align 8, !tbaa !21
  call void %72(ptr noundef %73)
  br label %74

74:                                               ; preds = %69, %62
  call void @llvm.lifetime.end.p0(i64 8, ptr %13) #10
  br label %75

75:                                               ; preds = %74
  br label %76

76:                                               ; preds = %75
  %77 = load ptr, ptr @tclStubsPtr, align 8, !tbaa !10
  %78 = getelementptr inbounds nuw %struct.TclStubs, ptr %77, i32 0, i32 176
  %79 = load ptr, ptr %78, align 8, !tbaa !141
  %80 = load ptr, ptr %11, align 8, !tbaa !63
  %81 = getelementptr inbounds nuw %struct.SqlCollate, ptr %80, i32 0, i32 0
  %82 = load ptr, ptr %81, align 8, !tbaa !64
  %83 = call ptr %79(ptr noundef %82)
  %84 = call i32 @atoi(ptr noundef %83) #11
  call void @llvm.lifetime.end.p0(i64 8, ptr %12) #10
  call void @llvm.lifetime.end.p0(i64 8, ptr %11) #10
  ret i32 %84
}