; Function Attrs: nounwind uwtable
define internal i32 @tclSqlCollate(ptr noundef readonly captures(none) %0, i32 noundef %1, ptr noundef %2, i32 noundef %3, ptr noundef %4) #0 {
  %6 = load ptr, ptr @tclStubsPtr, align 8, !tbaa !3
  %7 = getelementptr inbounds nuw i8, ptr %6, i64 464
  %8 = load ptr, ptr %7, align 8, !tbaa !72
  %9 = getelementptr inbounds nuw i8, ptr %0, i64 8
  %10 = load ptr, ptr %9, align 8, !tbaa !59
  %11 = tail call ptr %8(ptr noundef %10, i32 noundef -1) #14
  %12 = load i32, ptr %11, align 8, !tbaa !61
  %13 = add nsw i32 %12, 1
  store i32 %13, ptr %11, align 8, !tbaa !61
  %14 = load ptr, ptr @tclStubsPtr, align 8, !tbaa !3
  %15 = getelementptr inbounds nuw i8, ptr %14, i64 368
  %16 = load ptr, ptr %15, align 8, !tbaa !71
  %17 = load ptr, ptr %0, align 8, !tbaa !55
  %18 = getelementptr inbounds nuw i8, ptr %14, i64 464
  %19 = load ptr, ptr %18, align 8, !tbaa !72
  %20 = tail call ptr %19(ptr noundef %2, i32 noundef %1) #14
  %21 = tail call i32 %16(ptr noundef %17, ptr noundef nonnull %11, ptr noundef %20) #14
  %22 = load ptr, ptr @tclStubsPtr, align 8, !tbaa !3
  %23 = getelementptr inbounds nuw i8, ptr %22, i64 368
  %24 = load ptr, ptr %23, align 8, !tbaa !71
  %25 = load ptr, ptr %0, align 8, !tbaa !55
  %26 = getelementptr inbounds nuw i8, ptr %22, i64 464
  %27 = load ptr, ptr %26, align 8, !tbaa !72
  %28 = tail call ptr %27(ptr noundef %4, i32 noundef %3) #14
  %29 = tail call i32 %24(ptr noundef %25, ptr noundef nonnull %11, ptr noundef %28) #14
  %30 = load ptr, ptr @tclStubsPtr, align 8, !tbaa !3
  %31 = getelementptr inbounds nuw i8, ptr %30, i64 2360
  %32 = load ptr, ptr %31, align 8, !tbaa !121
  %33 = load ptr, ptr %0, align 8, !tbaa !55
  %34 = tail call i32 %32(ptr noundef %33, ptr noundef nonnull %11, i32 noundef 262144) #14
  %35 = load i32, ptr %11, align 8, !tbaa !61
  %36 = add nsw i32 %35, -1
  store i32 %36, ptr %11, align 8, !tbaa !61
  %37 = icmp slt i32 %35, 2
  br i1 %37, label %38, label %42

38:                                               ; preds = %5
  %39 = load ptr, ptr @tclStubsPtr, align 8, !tbaa !3
  %40 = getelementptr inbounds nuw i8, ptr %39, i64 256
  %41 = load ptr, ptr %40, align 8, !tbaa !64
  tail call void %41(ptr noundef nonnull %11) #14
  br label %42

42:                                               ; preds = %38, %5
  %43 = load ptr, ptr @tclStubsPtr, align 8, !tbaa !3
  %44 = getelementptr inbounds nuw i8, ptr %43, i64 1408
  %45 = load ptr, ptr %44, align 8, !tbaa !128
  %46 = load ptr, ptr %0, align 8, !tbaa !55
  %47 = tail call ptr %45(ptr noundef %46) #14
  %48 = tail call i64 @strtol(ptr noundef nonnull captures(none) %47, ptr noundef null, i32 noundef 10) #14
  %49 = trunc i64 %48 to i32
  ret i32 %49
}